target datalayout = "e-m:e-p270:32:32-p271:32:32-p272:64:64-i64:64-i128:128-f80:128-n8:16:32:64-S128"
target triple = "x86_64-pc-linux-gnu"

%struct.QemuMutex = type { %union.pthread_mutex_t, i8 }
%union.pthread_mutex_t = type { %struct.__pthread_mutex_s }
%struct.__pthread_mutex_s = type { i32, i32, i32, i32, i32, i16, i16, %struct.__pthread_internal_list }
%struct.__pthread_internal_list = type { ptr, ptr }
%struct.BlockJob = type { %struct.Job, i32, i64, %struct.RateLimit, ptr, %struct.Notifier, %struct.Notifier, %struct.Notifier, %struct.Notifier, %struct.Notifier, ptr }
%struct.Job = type { ptr, ptr, ptr, i8, i8, ptr, ptr, %struct.ProgressMeter, ptr, i32, i32, %struct.QEMUTimer, i32, i8, i8, i8, i8, i8, i8, i32, ptr, %struct.NotifierList, %struct.NotifierList, %struct.NotifierList, %struct.NotifierList, %struct.NotifierList, %struct.anon.0, ptr, %struct.anon.1 }
%struct.ProgressMeter = type { i64, i64, %struct.QemuMutex }
%struct.QEMUTimer = type { i64, ptr, ptr, ptr, ptr, i32, i32 }
%struct.NotifierList = type { %struct.anon }
%struct.anon = type { ptr }
%struct.anon.0 = type { ptr, ptr }
%struct.anon.1 = type { ptr, ptr }
%struct.RateLimit = type { %struct.QemuMutex, i64, i64, i64, i64, i64 }
%struct.Notifier = type { ptr, %struct.anon.2 }
%struct.anon.2 = type { ptr, ptr }

; Function Attrs: nounwind sspstrong uwtable
define dso_local zeroext i1 @block_job_is_internal(ptr noundef %0) #0 {
  %2 = alloca ptr, align 8
  store ptr %0, ptr %2, align 8
  %3 = load ptr, ptr %2, align 8
  %4 = getelementptr inbounds nuw %struct.BlockJob, ptr %3, i32 0, i32 0
  %5 = getelementptr inbounds nuw %struct.Job, ptr %4, i32 0, i32 0
  %6 = load ptr, ptr %5, align 8
  %7 = icmp eq ptr %6, null
  ret i1 %7
}

; Function Attrs: nounwind sspstrong uwtable
define internal void @block_job_event_completed_locked(ptr noundef %0, ptr noundef %1) #0 {
  %3 = alloca ptr, align 8
  %4 = alloca ptr, align 8
  %5 = alloca ptr, align 8
  %6 = alloca ptr, align 8
  %7 = alloca i64, align 8
  %8 = alloca i64, align 8
  %9 = alloca i32, align 4
  store ptr %0, ptr %3, align 8
  store ptr %1, ptr %4, align 8
  call void @llvm.lifetime.start.p0(i64 8, ptr %5) #12
  %10 = load ptr, ptr %4, align 8
  store ptr %10, ptr %5, align 8
  call void @llvm.lifetime.start.p0(i64 8, ptr %6) #12
  store ptr null, ptr %6, align 8
  call void @llvm.lifetime.start.p0(i64 8, ptr %7) #12
  store i64 0, ptr %7, align 8, !annotation !8
  call void @llvm.lifetime.start.p0(i64 8, ptr %8) #12
  store i64 0, ptr %8, align 8, !annotation !8
  %11 = load ptr, ptr %5, align 8
  %12 = call zeroext i1 @block_job_is_internal(ptr noundef %11)
  br i1 %12, label %13, label %14

13:                                               ; preds = %2
  store i32 1, ptr %9, align 4
  br label %43

14:                                               ; preds = %2
  %15 = load ptr, ptr %5, align 8
  %16 = getelementptr inbounds nuw %struct.BlockJob, ptr %15, i32 0, i32 0
  %17 = getelementptr inbounds nuw %struct.Job, ptr %16, i32 0, i32 19
  %18 = load i32, ptr %17, align 4
  %19 = icmp slt i32 %18, 0
  br i1 %19, label %20, label %26

20:                                               ; preds = %14
  %21 = load ptr, ptr %5, align 8
  %22 = getelementptr inbounds nuw %struct.BlockJob, ptr %21, i32 0, i32 0
  %23 = getelementptr inbounds nuw %struct.Job, ptr %22, i32 0, i32 20
  %24 = load ptr, ptr %23, align 8
  %25 = call ptr @error_get_pretty(ptr noundef %24)
  store ptr %25, ptr %6, align 8
  br label %26

26:                                               ; preds = %20, %14
  %27 = load ptr, ptr %5, align 8
  %28 = getelementptr inbounds nuw %struct.BlockJob, ptr %27, i32 0, i32 0
  %29 = getelementptr inbounds nuw %struct.Job, ptr %28, i32 0, i32 7
  call void @progress_get_snapshot(ptr noundef %29, ptr noundef %7, ptr noundef %8)
  %30 = load ptr, ptr %5, align 8
  %31 = getelementptr inbounds nuw %struct.BlockJob, ptr %30, i32 0, i32 0
  %32 = call i32 @job_type(ptr noundef %31)
  %33 = load ptr, ptr %5, align 8
  %34 = getelementptr inbounds nuw %struct.BlockJob, ptr %33, i32 0, i32 0
  %35 = getelementptr inbounds nuw %struct.Job, ptr %34, i32 0, i32 0
  %36 = load ptr, ptr %35, align 8
  %37 = load i64, ptr %8, align 8
  %38 = load i64, ptr %7, align 8
  %39 = load ptr, ptr %5, align 8
  %40 = getelementptr inbounds nuw %struct.BlockJob, ptr %39, i32 0, i32 2
  %41 = load i64, ptr %40, align 8
  %42 = load ptr, ptr %6, align 8
  call void @qapi_event_send_block_job_completed(i32 noundef %32, ptr noundef %36, i64 noundef %37, i64 noundef %38, i64 noundef %41, ptr noundef %42)
  store i32 0, ptr %9, align 4
  br label %43

43:                                               ; preds = %26, %13
  call void @llvm.lifetime.end.p0(i64 8, ptr %8) #12
  call void @llvm.lifetime.end.p0(i64 8, ptr %7) #12
  call void @llvm.lifetime.end.p0(i64 8, ptr %6) #12
  call void @llvm.lifetime.end.p0(i64 8, ptr %5) #12
  %44 = load i32, ptr %9, align 4
  switch i32 %44, label %46 [
    i32 0, label %45
    i32 1, label %45
  ]

45:                                               ; preds = %43, %43
  ret void

46:                                               ; preds = %43
  unreachable
}