; Function Attrs: nounwind sspstrong uwtable
define internal void @block_job_event_completed_locked(ptr readnone captures(none) %0, ptr noundef %1) #0 {
  %3 = alloca i64, align 8
  %4 = alloca i64, align 8
  call void @llvm.lifetime.start.p0(i64 8, ptr nonnull %3) #8
  call void @llvm.lifetime.start.p0(i64 8, ptr nonnull %4) #8
  %5 = load ptr, ptr %1, align 8
  %6 = icmp eq ptr %5, null
  br i1 %6, label %23, label %7

7:                                                ; preds = %2
  %8 = getelementptr inbounds nuw i8, ptr %1, i64 188
  %9 = load i32, ptr %8, align 4
  %10 = icmp slt i32 %9, 0
  br i1 %10, label %11, label %15

11:                                               ; preds = %7
  %12 = getelementptr inbounds nuw i8, ptr %1, i64 192
  %13 = load ptr, ptr %12, align 8
  %14 = tail call ptr @error_get_pretty(ptr noundef %13) #8
  br label %15

15:                                               ; preds = %11, %7
  %.0 = phi ptr [ %14, %11 ], [ null, %7 ]
  store i64 0, ptr %3, align 8, !annotation !9
  store i64 0, ptr %4, align 8, !annotation !9
  %16 = getelementptr inbounds nuw i8, ptr %1, i64 48
  call void @progress_get_snapshot(ptr noundef nonnull %16, ptr noundef nonnull %3, ptr noundef nonnull %4) #8
  %17 = call i32 @job_type(ptr noundef nonnull %1) #8
  %18 = load ptr, ptr %1, align 8
  %19 = load i64, ptr %4, align 8
  %20 = load i64, ptr %3, align 8
  %21 = getelementptr inbounds nuw i8, ptr %1, i64 288
  %22 = load i64, ptr %21, align 8
  call void @qapi_event_send_block_job_completed(i32 noundef %17, ptr noundef %18, i64 noundef %19, i64 noundef %20, i64 noundef %22, ptr noundef %.0) #8
  br label %23

23:                                               ; preds = %2, %15
  call void @llvm.lifetime.end.p0(i64 8, ptr nonnull %4) #8
  call void @llvm.lifetime.end.p0(i64 8, ptr nonnull %3) #8
  ret void
}